target datalayout = "e-m:e-p270:32:32-p271:32:32-p272:64:64-i64:64-i128:128-f80:128-n8:16:32:64-S128"
target triple = "x86_64-unknown-linux-gnu"

%"class.node::MutexBase" = type { %union.pthread_mutex_t }
%union.pthread_mutex_t = type { %struct.__pthread_mutex_s }
%struct.__pthread_mutex_s = type { i32, i32, i32, i32, i32, i16, i16, %struct.__pthread_internal_list }
%struct.__pthread_internal_list = type { ptr, ptr }
%"class.std::__cxx11::basic_string" = type { %"struct.std::__cxx11::basic_string<char>::_Alloc_hider", i64, %union.anon }
%"struct.std::__cxx11::basic_string<char>::_Alloc_hider" = type { ptr }
%union.anon = type { i64, [8 x i8] }
%"class.node::MutexBase<node::LibuvMutexTraits>::ScopedLock" = type { ptr }
%"class.std::allocator" = type { i8 }
%"struct.std::__detail::_Node_const_iterator" = type { %"struct.std::__detail::_Node_iterator_base" }
%"struct.std::__detail::_Node_iterator_base" = type { ptr }
%"class.node::MapKVStore" = type { %"class.node::KVStore", %"class.node::MutexBase", %"class.std::unordered_map" }
%"class.node::KVStore" = type { ptr }
%"class.std::unordered_map" = type { %"class.std::_Hashtable" }
%"class.std::_Hashtable" = type { ptr, i64, %"struct.std::__detail::_Hash_node_base", i64, %"struct.std::__detail::_Prime_rehash_policy", ptr }
%"struct.std::__detail::_Hash_node_base" = type { ptr }
%"struct.std::__detail::_Prime_rehash_policy" = type { float, i64 }

@.str.33 = private unnamed_addr constant [50 x i8] c"basic_string: construction from null is not valid\00", align 1

; Function Attrs: mustprogress nounwind uwtable
define linkonce_odr dso_local void @_ZNSt8__detail19_Node_iterator_baseISt4pairIKNSt7__cxx1112basic_stringIcSt11char_traitsIcESaIcEEES7_ELb1EEC2EPNS_10_Hash_nodeIS9_Lb1EEE(ptr noundef nonnull align 8 dereferenceable(8) %this, ptr noundef %__p) unnamed_addr #4 comdat align 2 {
entry:
  %this.addr = alloca ptr, align 8
  %__p.addr = alloca ptr, align 8
  store ptr %this, ptr %this.addr, align 8
  store ptr %__p, ptr %__p.addr, align 8
  %this1 = load ptr, ptr %this.addr, align 8
  %_M_cur = getelementptr inbounds %"struct.std::__detail::_Node_iterator_base", ptr %this1, i32 0, i32 0
  %0 = load ptr, ptr %__p.addr, align 8
  store ptr %0, ptr %_M_cur, align 8
  ret void
}

; Function Attrs: mustprogress nounwind uwtable
define linkonce_odr dso_local void @_ZNSt8__detail20_Node_const_iteratorISt4pairIKNSt7__cxx1112basic_stringIcSt11char_traitsIcESaIcEEES7_ELb0ELb1EEC2EPNS_10_Hash_nodeIS9_Lb1EEE(ptr noundef nonnull align 8 dereferenceable(8) %this, ptr noundef %__p) unnamed_addr #4 comdat align 2 {
entry:
  %this.addr = alloca ptr, align 8
  %__p.addr = alloca ptr, align 8
  store ptr %this, ptr %this.addr, align 8
  store ptr %__p, ptr %__p.addr, align 8
  %this1 = load ptr, ptr %this.addr, align 8
  %0 = load ptr, ptr %__p.addr, align 8
  call void @_ZNSt8__detail19_Node_iterator_baseISt4pairIKNSt7__cxx1112basic_stringIcSt11char_traitsIcESaIcEEES7_ELb1EEC2EPNS_10_Hash_nodeIS9_Lb1EEE(ptr noundef nonnull align 8 dereferenceable(8) %this1, ptr noundef %0) #3
  ret void
}

; Function Attrs: mustprogress nounwind uwtable
define linkonce_odr dso_local void @_ZN4node16LibuvMutexTraits12mutex_unlockEP15pthread_mutex_t(ptr noundef %mutex) #4 comdat align 2 {
entry:
  %mutex.addr = alloca ptr, align 8
  store ptr %mutex, ptr %mutex.addr, align 8
  %0 = load ptr, ptr %mutex.addr, align 8
  call void @uv_mutex_unlock(ptr noundef %0)
  ret void
}

; Function Attrs: mustprogress nounwind uwtable
define linkonce_odr dso_local ptr @_ZNKSt10_HashtableINSt7__cxx1112basic_stringIcSt11char_traitsIcESaIcEEESt4pairIKS5_S5_ESaIS8_ENSt8__detail10_Select1stESt8equal_toIS5_ESt4hashIS5_ENSA_18_Mod_range_hashingENSA_20_Default_ranged_hashENSA_20_Prime_rehash_policyENSA_17_Hashtable_traitsILb1ELb0ELb1EEEE3endEv(ptr noundef nonnull align 8 dereferenceable(56) %this) #4 comdat align 2 {
entry:
  %retval = alloca %"struct.std::__detail::_Node_const_iterator", align 8
  %this.addr = alloca ptr, align 8
  store ptr %this, ptr %this.addr, align 8
  call void @_ZNSt8__detail20_Node_const_iteratorISt4pairIKNSt7__cxx1112basic_stringIcSt11char_traitsIcESaIcEEES7_ELb0ELb1EEC2EPNS_10_Hash_nodeIS9_Lb1EEE(ptr noundef nonnull align 8 dereferenceable(8) %retval, ptr noundef null) #3
  %coerce.dive = getelementptr inbounds %"struct.std::__detail::_Node_const_iterator", ptr %retval, i32 0, i32 0
  %coerce.dive2 = getelementptr inbounds %"struct.std::__detail::_Node_iterator_base", ptr %coerce.dive, i32 0, i32 0
  %0 = load ptr, ptr %coerce.dive2, align 8
  ret ptr %0
}

; Function Attrs: mustprogress nounwind uwtable
define linkonce_odr dso_local noundef i64 @_ZNSt11char_traitsIcE6lengthEPKc(ptr noundef %__s) #4 comdat align 2 {
entry:
  %__s.addr = alloca ptr, align 8
  store ptr %__s, ptr %__s.addr, align 8
  %0 = load ptr, ptr %__s.addr, align 8
  %call = call i64 @strlen(ptr noundef %0) #3
  ret i64 %call
}

; Function Attrs: mustprogress nounwind uwtable
define linkonce_odr dso_local void @_ZN4node16LibuvMutexTraits10mutex_lockEP15pthread_mutex_t(ptr noundef %mutex) #4 comdat align 2 {
entry:
  %mutex.addr = alloca ptr, align 8
  store ptr %mutex, ptr %mutex.addr, align 8
  %0 = load ptr, ptr %mutex.addr, align 8
  call void @uv_mutex_lock(ptr noundef %0)
  ret void
}

; Function Attrs: mustprogress nounwind uwtable
define linkonce_odr dso_local void @_ZN4node9MutexBaseINS_16LibuvMutexTraitsEE10ScopedLockD2Ev(ptr noundef nonnull align 8 dereferenceable(8) %this) unnamed_addr #4 comdat align 2 {
entry:
  %this.addr = alloca ptr, align 8
  store ptr %this, ptr %this.addr, align 8
  %this1 = load ptr, ptr %this.addr, align 8
  %mutex_ = getelementptr inbounds %"class.node::MutexBase<node::LibuvMutexTraits>::ScopedLock", ptr %this1, i32 0, i32 0
  %0 = load ptr, ptr %mutex_, align 8
  %mutex_2 = getelementptr inbounds %"class.node::MutexBase", ptr %0, i32 0, i32 0
  call void @_ZN4node16LibuvMutexTraits12mutex_unlockEP15pthread_mutex_t(ptr noundef %mutex_2)
  ret void
}

; Function Attrs: mustprogress nounwind uwtable
define linkonce_odr dso_local noundef zeroext i1 @_ZNSt8__detaileqERKNS_19_Node_iterator_baseISt4pairIKNSt7__cxx1112basic_stringIcSt11char_traitsIcESaIcEEES7_ELb1EEESC_(ptr noundef nonnull align 8 dereferenceable(8) %__x, ptr noundef nonnull align 8 dereferenceable(8) %__y) #4 comdat {
entry:
  %__x.addr = alloca ptr, align 8
  %__y.addr = alloca ptr, align 8
  store ptr %__x, ptr %__x.addr, align 8
  store ptr %__y, ptr %__y.addr, align 8
  %0 = load ptr, ptr %__x.addr, align 8
  %_M_cur = getelementptr inbounds %"struct.std::__detail::_Node_iterator_base", ptr %0, i32 0, i32 0
  %1 = load ptr, ptr %_M_cur, align 8
  %2 = load ptr, ptr %__y.addr, align 8
  %_M_cur1 = getelementptr inbounds %"struct.std::__detail::_Node_iterator_base", ptr %2, i32 0, i32 0
  %3 = load ptr, ptr %_M_cur1, align 8
  %cmp = icmp eq ptr %1, %3
  ret i1 %cmp
}

; Function Attrs: mustprogress nounwind uwtable
define linkonce_odr dso_local ptr @_ZNKSt13unordered_mapINSt7__cxx1112basic_stringIcSt11char_traitsIcESaIcEEES5_St4hashIS5_ESt8equal_toIS5_ESaISt4pairIKS5_S5_EEE3endEv(ptr noundef nonnull align 8 dereferenceable(56) %this) #4 comdat align 2 {
entry:
  %retval = alloca %"struct.std::__detail::_Node_const_iterator", align 8
  %this.addr = alloca ptr, align 8
  store ptr %this, ptr %this.addr, align 8
  %this1 = load ptr, ptr %this.addr, align 8
  %_M_h = getelementptr inbounds %"class.std::unordered_map", ptr %this1, i32 0, i32 0
  %call = call ptr @_ZNKSt10_HashtableINSt7__cxx1112basic_stringIcSt11char_traitsIcESaIcEEESt4pairIKS5_S5_ESaIS8_ENSt8__detail10_Select1stESt8equal_toIS5_ESt4hashIS5_ENSA_18_Mod_range_hashingENSA_20_Default_ranged_hashENSA_20_Prime_rehash_policyENSA_17_Hashtable_traitsILb1ELb0ELb1EEEE3endEv(ptr noundef nonnull align 8 dereferenceable(56) %_M_h) #3
  %coerce.dive = getelementptr inbounds %"struct.std::__detail::_Node_const_iterator", ptr %retval, i32 0, i32 0
  %coerce.dive2 = getelementptr inbounds %"struct.std::__detail::_Node_iterator_base", ptr %coerce.dive, i32 0, i32 0
  store ptr %call, ptr %coerce.dive2, align 8
  %coerce.dive3 = getelementptr inbounds %"struct.std::__detail::_Node_const_iterator", ptr %retval, i32 0, i32 0
  %coerce.dive4 = getelementptr inbounds %"struct.std::__detail::_Node_iterator_base", ptr %coerce.dive3, i32 0, i32 0
  %0 = load ptr, ptr %coerce.dive4, align 8
  ret ptr %0
}

; Function Attrs: mustprogress nounwind uwtable
define linkonce_odr dso_local ptr @_ZNKSt13unordered_mapINSt7__cxx1112basic_stringIcSt11char_traitsIcESaIcEEES5_St4hashIS5_ESt8equal_toIS5_ESaISt4pairIKS5_S5_EEE4findERSB_(ptr noundef nonnull align 8 dereferenceable(56) %this, ptr noundef nonnull align 8 dereferenceable(32) %__x) #4 comdat align 2 {
entry:
  %retval = alloca %"struct.std::__detail::_Node_const_iterator", align 8
  %this.addr = alloca ptr, align 8
  %__x.addr = alloca ptr, align 8
  store ptr %this, ptr %this.addr, align 8
  store ptr %__x, ptr %__x.addr, align 8
  %this1 = load ptr, ptr %this.addr, align 8
  %_M_h = getelementptr inbounds %"class.std::unordered_map", ptr %this1, i32 0, i32 0
  %0 = load ptr, ptr %__x.addr, align 8
  %call = call ptr @_ZNKSt10_HashtableINSt7__cxx1112basic_stringIcSt11char_traitsIcESaIcEEESt4pairIKS5_S5_ESaIS8_ENSt8__detail10_Select1stESt8equal_toIS5_ESt4hashIS5_ENSA_18_Mod_range_hashingENSA_20_Default_ranged_hashENSA_20_Prime_rehash_policyENSA_17_Hashtable_traitsILb1ELb0ELb1EEEE4findERS7_(ptr noundef nonnull align 8 dereferenceable(56) %_M_h, ptr noundef nonnull align 8 dereferenceable(32) %0)
  %coerce.dive = getelementptr inbounds %"struct.std::__detail::_Node_const_iterator", ptr %retval, i32 0, i32 0
  %coerce.dive2 = getelementptr inbounds %"struct.std::__detail::_Node_iterator_base", ptr %coerce.dive, i32 0, i32 0
  store ptr %call, ptr %coerce.dive2, align 8
  %coerce.dive3 = getelementptr inbounds %"struct.std::__detail::_Node_const_iterator", ptr %retval, i32 0, i32 0
  %coerce.dive4 = getelementptr inbounds %"struct.std::__detail::_Node_iterator_base", ptr %coerce.dive3, i32 0, i32 0
  %1 = load ptr, ptr %coerce.dive4, align 8
  ret ptr %1
}

; Function Attrs: mustprogress nounwind uwtable
define linkonce_odr dso_local void @_ZNSt7__cxx1112basic_stringIcSt11char_traitsIcESaIcEEC2IS3_EEPKcRKS3_(ptr noundef nonnull align 8 dereferenceable(32) %this, ptr noundef %__s, ptr noundef nonnull align 1 dereferenceable(1) %__a) unnamed_addr #4 comdat align 2 {
entry:
  %this.addr = alloca ptr, align 8
  %__s.addr = alloca ptr, align 8
  %__a.addr = alloca ptr, align 8
  %__end = alloca ptr, align 8
  store ptr %this, ptr %this.addr, align 8
  store ptr %__s, ptr %__s.addr, align 8
  store ptr %__a, ptr %__a.addr, align 8
  %this1 = load ptr, ptr %this.addr, align 8
  %_M_dataplus = getelementptr inbounds %"class.std::__cxx11::basic_string", ptr %this1, i32 0, i32 0
  %call = call noundef ptr @_ZNSt7__cxx1112basic_stringIcSt11char_traitsIcESaIcEE13_M_local_dataEv(ptr noundef nonnull align 8 dereferenceable(32) %this1)
  %0 = load ptr, ptr %__a.addr, align 8
  call void @_ZNSt7__cxx1112basic_stringIcSt11char_traitsIcESaIcEE12_Alloc_hiderC1EPcRKS3_(ptr noundef nonnull align 8 dereferenceable(8) %_M_dataplus, ptr noundef %call, ptr noundef nonnull align 1 dereferenceable(1) %0)
  %1 = load ptr, ptr %__s.addr, align 8
  %cmp = icmp eq ptr %1, null
  br i1 %cmp, label %if.then, label %if.end

if.then:                                          ; preds = %entry
  call void @_ZSt19__throw_logic_errorPKc(ptr noundef @.str.33) #17
  unreachable

if.end:                                           ; preds = %entry
  %2 = load ptr, ptr %__s.addr, align 8
  %3 = load ptr, ptr %__s.addr, align 8
  %call2 = call noundef i64 @_ZNSt11char_traitsIcE6lengthEPKc(ptr noundef %3)
  %add.ptr = getelementptr inbounds i8, ptr %2, i64 %call2
  store ptr %add.ptr, ptr %__end, align 8
  %4 = load ptr, ptr %__s.addr, align 8
  %5 = load ptr, ptr %__end, align 8
  call void @_ZNSt7__cxx1112basic_stringIcSt11char_traitsIcESaIcEE12_M_constructIPKcEEvT_S8_St20forward_iterator_tag(ptr noundef nonnull align 8 dereferenceable(32) %this1, ptr noundef %4, ptr noundef %5)
  ret void
}

; Function Attrs: mustprogress nounwind uwtable
define linkonce_odr dso_local void @_ZN4node9MutexBaseINS_16LibuvMutexTraitsEE10ScopedLockC2ERKS2_(ptr noundef nonnull align 8 dereferenceable(8) %this, ptr noundef nonnull align 8 dereferenceable(40) %mutex) unnamed_addr #4 comdat align 2 {
entry:
  %this.addr = alloca ptr, align 8
  %mutex.addr = alloca ptr, align 8
  store ptr %this, ptr %this.addr, align 8
  store ptr %mutex, ptr %mutex.addr, align 8
  %this1 = load ptr, ptr %this.addr, align 8
  %mutex_ = getelementptr inbounds %"class.node::MutexBase<node::LibuvMutexTraits>::ScopedLock", ptr %this1, i32 0, i32 0
  %0 = load ptr, ptr %mutex.addr, align 8
  store ptr %0, ptr %mutex_, align 8
  %mutex_2 = getelementptr inbounds %"class.node::MutexBase<node::LibuvMutexTraits>::ScopedLock", ptr %this1, i32 0, i32 0
  %1 = load ptr, ptr %mutex_2, align 8
  %mutex_3 = getelementptr inbounds %"class.node::MutexBase", ptr %1, i32 0, i32 0
  call void @_ZN4node16LibuvMutexTraits10mutex_lockEP15pthread_mutex_t(ptr noundef %mutex_3)
  ret void
}

; Function Attrs: mustprogress nounwind uwtable
define dso_local noundef i32 @_ZNK4node10MapKVStore5QueryEPKc(ptr noundef nonnull align 8 dereferenceable(104) %this, ptr noundef %key) unnamed_addr #4 align 2 {
entry:
  %this.addr = alloca ptr, align 8
  %key.addr = alloca ptr, align 8
  %lock = alloca %"class.node::MutexBase<node::LibuvMutexTraits>::ScopedLock", align 8
  %ref.tmp = alloca %"struct.std::__detail::_Node_const_iterator", align 8
  %ref.tmp2 = alloca %"class.std::__cxx11::basic_string", align 8
  %ref.tmp3 = alloca %"class.std::allocator", align 1
  %ref.tmp5 = alloca %"struct.std::__detail::_Node_const_iterator", align 8
  store ptr %this, ptr %this.addr, align 8
  store ptr %key, ptr %key.addr, align 8
  %this1 = load ptr, ptr %this.addr, align 8
  %mutex_ = getelementptr inbounds %"class.node::MapKVStore", ptr %this1, i32 0, i32 1
  call void @_ZN4node9MutexBaseINS_16LibuvMutexTraitsEE10ScopedLockC2ERKS2_(ptr noundef nonnull align 8 dereferenceable(8) %lock, ptr noundef nonnull align 8 dereferenceable(40) %mutex_)
  %map_ = getelementptr inbounds %"class.node::MapKVStore", ptr %this1, i32 0, i32 2
  %0 = load ptr, ptr %key.addr, align 8
  call void @_ZNSaIcEC1Ev(ptr noundef nonnull align 1 dereferenceable(1) %ref.tmp3) #3
  call void @_ZNSt7__cxx1112basic_stringIcSt11char_traitsIcESaIcEEC2IS3_EEPKcRKS3_(ptr noundef nonnull align 8 dereferenceable(32) %ref.tmp2, ptr noundef %0, ptr noundef nonnull align 1 dereferenceable(1) %ref.tmp3)
  %call = call ptr @_ZNKSt13unordered_mapINSt7__cxx1112basic_stringIcSt11char_traitsIcESaIcEEES5_St4hashIS5_ESt8equal_toIS5_ESaISt4pairIKS5_S5_EEE4findERSB_(ptr noundef nonnull align 8 dereferenceable(56) %map_, ptr noundef nonnull align 8 dereferenceable(32) %ref.tmp2)
  %coerce.dive = getelementptr inbounds %"struct.std::__detail::_Node_const_iterator", ptr %ref.tmp, i32 0, i32 0
  %coerce.dive4 = getelementptr inbounds %"struct.std::__detail::_Node_iterator_base", ptr %coerce.dive, i32 0, i32 0
  store ptr %call, ptr %coerce.dive4, align 8
  %map_6 = getelementptr inbounds %"class.node::MapKVStore", ptr %this1, i32 0, i32 2
  %call7 = call ptr @_ZNKSt13unordered_mapINSt7__cxx1112basic_stringIcSt11char_traitsIcESaIcEEES5_St4hashIS5_ESt8equal_toIS5_ESaISt4pairIKS5_S5_EEE3endEv(ptr noundef nonnull align 8 dereferenceable(56) %map_6) #3
  %coerce.dive8 = getelementptr inbounds %"struct.std::__detail::_Node_const_iterator", ptr %ref.tmp5, i32 0, i32 0
  %coerce.dive9 = getelementptr inbounds %"struct.std::__detail::_Node_iterator_base", ptr %coerce.dive8, i32 0, i32 0
  store ptr %call7, ptr %coerce.dive9, align 8
  %call10 = call noundef zeroext i1 @_ZNSt8__detaileqERKNS_19_Node_iterator_baseISt4pairIKNSt7__cxx1112basic_stringIcSt11char_traitsIcESaIcEEES7_ELb1EEESC_(ptr noundef nonnull align 8 dereferenceable(8) %ref.tmp, ptr noundef nonnull align 8 dereferenceable(8) %ref.tmp5) #3
  %cond = select i1 %call10, i32 -1, i32 0
  call void @_ZNSt7__cxx1112basic_stringIcSt11char_traitsIcESaIcEED1Ev(ptr noundef nonnull align 8 dereferenceable(32) %ref.tmp2) #3
  call void @_ZNSaIcED1Ev(ptr noundef nonnull align 1 dereferenceable(1) %ref.tmp3) #3
  call void @_ZN4node9MutexBaseINS_16LibuvMutexTraitsEE10ScopedLockD2Ev(ptr noundef nonnull align 8 dereferenceable(8) %lock) #3
  ret i32 %cond
}