; Function Attrs: mustprogress nounwind uwtable
define dso_local noundef i32 @_ZNK4node10MapKVStore5QueryEPKc(ptr noundef nonnull align 8 dereferenceable(104) %this, ptr noundef %key) unnamed_addr #3 align 2 {
entry:
  %ref.tmp2 = alloca %"class.std::__cxx11::basic_string", align 8
  %ref.tmp3 = alloca %"class.std::allocator", align 1
  %mutex_ = getelementptr inbounds i8, ptr %this, i64 8
  tail call void @uv_mutex_lock(ptr noundef nonnull %mutex_) #20
  call void @_ZNSaIcEC1Ev(ptr noundef nonnull align 1 dereferenceable(1) %ref.tmp3) #20
  %call.i = call noundef ptr @_ZNSt7__cxx1112basic_stringIcSt11char_traitsIcESaIcEE13_M_local_dataEv(ptr noundef nonnull align 8 dereferenceable(32) %ref.tmp2) #20
  call void @_ZNSt7__cxx1112basic_stringIcSt11char_traitsIcESaIcEE12_Alloc_hiderC1EPcRKS3_(ptr noundef nonnull align 8 dereferenceable(8) %ref.tmp2, ptr noundef %call.i, ptr noundef nonnull align 1 dereferenceable(1) %ref.tmp3) #20
  %cmp.i = icmp eq ptr %key, null
  br i1 %cmp.i, label %if.then.i, label %_ZNSt7__cxx1112basic_stringIcSt11char_traitsIcESaIcEEC2IS3_EEPKcRKS3_.exit

if.then.i:                                        ; preds = %entry
  call void @_ZSt19__throw_logic_errorPKc(ptr noundef nonnull @.str.33) #21
  unreachable

_ZNSt7__cxx1112basic_stringIcSt11char_traitsIcESaIcEEC2IS3_EEPKcRKS3_.exit: ; preds = %entry
  %map_ = getelementptr inbounds i8, ptr %this, i64 48
  %call.i.i = call noundef i64 @strlen(ptr noundef nonnull dereferenceable(1) %key) #20
  %add.ptr.i = getelementptr inbounds i8, ptr %key, i64 %call.i.i
  call void @_ZNSt7__cxx1112basic_stringIcSt11char_traitsIcESaIcEE12_M_constructIPKcEEvT_S8_St20forward_iterator_tag(ptr noundef nonnull align 8 dereferenceable(32) %ref.tmp2, ptr noundef nonnull %key, ptr noundef nonnull %add.ptr.i)
  %call.i1 = call ptr @_ZNKSt10_HashtableINSt7__cxx1112basic_stringIcSt11char_traitsIcESaIcEEESt4pairIKS5_S5_ESaIS8_ENSt8__detail10_Select1stESt8equal_toIS5_ESt4hashIS5_ENSA_18_Mod_range_hashingENSA_20_Default_ranged_hashENSA_20_Prime_rehash_policyENSA_17_Hashtable_traitsILb1ELb0ELb1EEEE4findERS7_(ptr noundef nonnull align 8 dereferenceable(56) %map_, ptr noundef nonnull align 8 dereferenceable(32) %ref.tmp2)
  %cmp.i2 = icmp eq ptr %call.i1, null
  %cond = sext i1 %cmp.i2 to i32
  call void @_ZNSt7__cxx1112basic_stringIcSt11char_traitsIcESaIcEED1Ev(ptr noundef nonnull align 8 dereferenceable(32) %ref.tmp2) #20
  call void @_ZNSaIcED1Ev(ptr noundef nonnull align 1 dereferenceable(1) %ref.tmp3) #20
  call void @uv_mutex_unlock(ptr noundef nonnull %mutex_) #20
  ret i32 %cond
}